target datalayout = "e-m:e-p270:32:32-p271:32:32-p272:64:64-i64:64-i128:128-f80:128-n8:16:32:64-S128"
target triple = "x86_64-pc-linux-gnu"

%class.LibRaw = type { ptr, %struct.libraw_data_t, ptr, %struct.libraw_internal_data_t, [2048 x %struct.decode], ptr, ptr, [10 x %struct.tiff_ifd_t], %class.libraw_memmgr, %struct.libraw_callbacks_t, { i64, i64 }, { i64, i64 }, { i64, i64 }, ptr, ptr, ptr, i64, ptr, ptr, ptr, ptr }
%struct.libraw_data_t = type { ptr, %struct.libraw_image_sizes_t, %struct.libraw_iparams_t, %struct.libraw_lensinfo_t, %struct.libraw_makernotes_t, %struct.libraw_shootinginfo_t, %struct.libraw_output_params_t, %struct.libraw_raw_unpack_params_t, i32, i32, %struct.libraw_colordata_t, %struct.libraw_imgother_t, %struct.libraw_thumbnail_t, %struct.libraw_thumbnail_list_t, %struct.libraw_rawdata_t, ptr }
%struct.libraw_image_sizes_t = type { i16, i16, i16, i16, i16, i16, i16, i16, i32, double, i32, [8 x [4 x i32]], i16, [2 x %struct.libraw_raw_inset_crop_t] }
%struct.libraw_raw_inset_crop_t = type { i16, i16, i16, i16 }
%struct.libraw_iparams_t = type { [4 x i8], [64 x i8], [64 x i8], [64 x i8], [64 x i8], [64 x i8], i32, i32, i32, i32, i32, i32, [6 x [6 x i8]], [6 x [6 x i8]], [5 x i8], i32, ptr }
%struct.libraw_lensinfo_t = type { float, float, float, float, float, [128 x i8], [128 x i8], [128 x i8], [128 x i8], i16, %struct.libraw_nikonlens_t, %struct.libraw_dnglens_t, %struct.libraw_makernotes_lens_t }
%struct.libraw_nikonlens_t = type { float, i8, i8, i8, i8 }
%struct.libraw_dnglens_t = type { float, float, float, float }
%struct.libraw_makernotes_lens_t = type { i64, [128 x i8], i16, i16, i64, i16, i16, [64 x i8], i16, [16 x i8], [16 x i8], float, float, float, float, float, float, float, float, float, float, float, float, float, float, float, i64, [128 x i8], i64, [128 x i8], i64, [128 x i8], i16, float }
%struct.libraw_makernotes_t = type { %struct.libraw_canon_makernotes_t, %struct.libraw_nikon_makernotes_t, %struct.libraw_hasselblad_makernotes_t, %struct.libraw_fuji_info_t, %struct.libraw_olympus_makernotes_t, %struct.libraw_sony_info_t, %struct.libraw_kodak_makernotes_t, %struct.libraw_panasonic_makernotes_t, %struct.libraw_pentax_makernotes_t, %struct.libraw_p1_makernotes_t, %struct.libraw_ricoh_makernotes_t, %struct.libraw_samsung_makernotes_t, %struct.libraw_metadata_common_t }
%struct.libraw_canon_makernotes_t = type { i32, i32, i32, i32, [4 x i32], i32, [4 x i32], i16, i16, i8, i16, i16, i16, i16, i16, i16, i16, i16, i16, i16, i16, i16, i16, i32, float, i16, i16, i16, i32, i16, i32, i32, i16, i32, %struct.libraw_area_t, %struct.libraw_area_t, %struct.libraw_area_t, %struct.libraw_area_t, %struct.libraw_area_t, [2 x i16] }
%struct.libraw_area_t = type { i16, i16, i16, i16 }
%struct.libraw_nikon_makernotes_t = type { double, i16, i16, [7 x i8], i8, i8, [13 x i8], [20 x i8], [4 x i8], [4 x i8], [4 x i8], i8, i8, i8, i8, i8, [2 x i8], i8, i8, i8, i8, i8, [4 x i8], [4 x i8], i8, i16, i32, i32, i32, i32, [4 x double], i8, i8, i8, i32, i32, i32, i8, [4 x i16], i16, %struct.libraw_sensor_highspeed_crop_t, i16, i16, i16, i32, [20 x i8], [20 x i8], i32, i16, double, double, double }
%struct.libraw_sensor_highspeed_crop_t = type { i16, i16, i16, i16 }
%struct.libraw_hasselblad_makernotes_t = type { i32, double, [8 x i8], [64 x i8], [64 x i8], i32, i32, i32, i32, [32 x i8], [64 x i8], i32, [2 x i32], [2 x i32], [4 x [3 x double]] }
%struct.libraw_fuji_info_t = type { float, i16, i16, i16, i16, i16, i16, i16, i16, [33 x i8], [33 x i8], float, i16, i16, [2 x i16], i16, i32, i32, i16, [3 x i16], i16, i16, i16, i16, i16, i32, i16, [13 x i8], [5 x i8], [5 x i8], i32, i16, i32, i16, [9 x i16], [32 x i32], i32, i32, i32, [2 x float], i32 }
%struct.libraw_olympus_makernotes_t = type { [6 x i8], i16, [2 x i32], [5 x i16], i16, [2 x i16], i16, i16, [64 x i32], [5 x double], i16, i8, [3 x i16], [3 x i32], i16, i16, i16, i16, double, [4 x i16], [2 x i32], i8, i32, i16, i16 }
%struct.libraw_sony_info_t = type { i16, i8, i8, i32, i8, i32, i8, i8, i16, [2 x i16], i8, i8, i16, [10 x i8], i8, i8, [4 x i16], i16, i8, i8, i8, i16, i32, i16, [2 x i16], i16, i16, i16, i16, i16, i16, i16, i32, float, i16, i32, i32, i16, [20 x i8], i32, i16, i32, i8, i8, i16, i16, i16, i16, i16, i16, i16, i16, i16, i32, i16, [16 x i8], float }
%struct.libraw_kodak_makernotes_t = type { i16, i16, i16, i16, i16, i16, [3 x [3 x float]], [3 x [3 x float]], [3 x [3 x float]], [3 x [3 x float]], [3 x [3 x float]], [3 x [3 x float]], i16, i16, i16, i16, float, float }
%struct.libraw_panasonic_makernotes_t = type { i16, i16, [8 x float], i32, float, [3 x i32], i16, i16, i32, i32 }
%struct.libraw_pentax_makernotes_t = type { [4 x i8], [2 x i16], [2 x i16], i16, i32, i32, i16, i16, i8, i8, i16 }
%struct.libraw_p1_makernotes_t = type { [64 x i8], [64 x i8], [256 x i8], [64 x i8] }
%struct.libraw_ricoh_makernotes_t = type { i16, [2 x i32], [2 x i32], i16, i32, i32, i32, i32, i16, i16, i16, i16, i16, i16, double, double }
%struct.libraw_samsung_makernotes_t = type { [4 x i32], [4 x i32], [2 x i32], [11 x i32], double, i32, [32 x i8] }
%struct.libraw_metadata_common_t = type { float, float, float, float, float, float, float, float, float, float, float, float, float, float, float, float, i16, [128 x i8], float, [4 x %struct.libraw_afinfo_item_t], i32 }
%struct.libraw_afinfo_item_t = type { i32, i16, i32, i32, ptr }
%struct.libraw_shootinginfo_t = type { i16, i16, i16, i16, i16, i16, i16, [64 x i8], [64 x i8] }
%struct.libraw_output_params_t = type { [4 x i32], [4 x i32], [4 x double], [6 x double], [4 x float], float, float, i32, i32, i32, i32, i32, i32, i32, ptr, ptr, ptr, ptr, i32, i32, i32, i32, i32, i32, [4 x i32], i32, i32, float, float, i32, i32, i32, i32, i32, i32, i32, i32, float, float, i32, i32 }
%struct.libraw_raw_unpack_params_t = type { i32, i32, i32, i32, i32, i32, i32, float, [5 x i8], ptr }
%struct.libraw_colordata_t = type { [65536 x i16], [4104 x i32], i32, i32, i32, [4 x i64], float, float, [8 x [8 x i16]], [4 x float], [4 x float], [3 x [4 x float]], [3 x [4 x float]], [3 x [4 x float]], [4 x [3 x float]], %struct.ph1_t, float, float, [64 x i8], [64 x i8], [64 x i8], [64 x i8], [17 x i8], [64 x i8], ptr, i32, [8 x i32], [2 x %struct.libraw_dng_color_t], %struct.libraw_dng_levels_t, [256 x [4 x i32]], [64 x [5 x float]], i32, [2 x %struct.libraw_P1_color_t], i32, i32 }
%struct.ph1_t = type { i32, i32, i32, i32, i32, i32, i32, i32, float }
%struct.libraw_dng_color_t = type { i32, i16, [4 x [4 x float]], [4 x [3 x float]], [3 x [4 x float]] }
%struct.libraw_dng_levels_t = type { i32, [4104 x i32], i32, [4104 x float], float, [4 x i32], [4 x i16], [4 x float], i32, [4 x float], [4 x float], float, float }
%struct.libraw_P1_color_t = type { [9 x float] }
%struct.libraw_imgother_t = type { float, float, float, float, i64, i32, [32 x i32], %struct.libraw_gps_info_t, [512 x i8], [64 x i8], [4 x float] }
%struct.libraw_gps_info_t = type { [3 x float], [3 x float], [3 x float], float, i8, i8, i8, i8, i8 }
%struct.libraw_thumbnail_t = type { i32, i16, i16, i32, i32, ptr }
%struct.libraw_thumbnail_list_t = type { i32, [8 x %struct.libraw_thumbnail_item_t] }
%struct.libraw_thumbnail_item_t = type { i32, i16, i16, i16, i32, i32, i64 }
%struct.libraw_rawdata_t = type { ptr, ptr, ptr, ptr, ptr, ptr, ptr, ptr, ptr, %struct.libraw_iparams_t, %struct.libraw_image_sizes_t, %struct.libraw_internal_output_params_t, %struct.libraw_colordata_t }
%struct.libraw_internal_output_params_t = type { i32, i32, i32, i16, i16 }
%struct.libraw_internal_data_t = type { %struct.internal_data_t, %struct.libraw_internal_output_params_t, %struct.output_data_t, %struct.identify_data_t, %struct.unpacker_data_t }
%struct.internal_data_t = type { ptr, ptr, i32, ptr, i64, i64, [4 x i32] }
%struct.output_data_t = type { ptr, ptr }
%struct.identify_data_t = type { i32, i64, i64, i32, i32, i32 }
%struct.unpacker_data_t = type { i16, [4 x i16], [3 x i16], i32, i64, i64, i64, i64, i64, i64, i32, i32, i32, i32, i32, i32, i32, i32, i32, i32, i32, i32, i32, i32, i32, i32, i32, i64, i32, i32, i32, i32, i32, i32, i32, i32, i32, %struct.pana8_tags_t, [16 x %struct.crx_data_header_t], i32, i32, i16, i16, i32, i32, i32, i32, i32, i32, i32, [20 x i32], i16 }
%struct.pana8_tags_t = type { [6 x i32], [6 x i16], i16, [4 x i16], [17 x i16], [17 x i16], [17 x i16], i16, i16, [5 x i64], [5 x i16], [5 x i32], [5 x i16], [5 x i16] }
%struct.crx_data_header_t = type { i32, i32, i32, i32, i32, i32, i32, i32, i32, i32, i32, i32, i32, i32, i32, i64, i32, ptr, i32, i32, i32, ptr, i32, ptr }
%struct.decode = type { [2 x ptr], i32 }
%struct.tiff_ifd_t = type { i32, i32, i32, i32, i32, i32, i32, i32, i32, i32, i32, i32, i32, i32, i32, ptr, i32, ptr, i32, i32, i32, i32, i32, i32, i32, float, i64, i64, i32, [2 x %struct.libraw_dng_color_t], %struct.libraw_dng_levels_t, i32 }
%class.libraw_memmgr = type <{ ptr, i32, [4 x i8] }>
%struct.libraw_callbacks_t = type { ptr, ptr, ptr, ptr, ptr, ptr, ptr, ptr, ptr, ptr, ptr, ptr, ptr, ptr, ptr, ptr, ptr }

@.str = private unnamed_addr constant [6 x i8] c"D4040\00", align 1
@.str.12 = private unnamed_addr constant [6 x i8] c"S0036\00", align 1

; Function Attrs: mustprogress uwtable
define void @_ZN6LibRaw28getOlympus_SensorTemperatureEj(ptr noundef nonnull align 8 dereferenceable(767680) %0, i32 noundef %1) #1 align 2 {
  %3 = alloca ptr, align 8
  %4 = alloca i32, align 4
  %5 = alloca i16, align 2
  store ptr %0, ptr %3, align 8, !tbaa !6
  store i32 %1, ptr %4, align 4, !tbaa !79
  %6 = load ptr, ptr %3, align 8
  %7 = getelementptr inbounds nuw %class.LibRaw, ptr %6, i32 0, i32 3
  %8 = getelementptr inbounds nuw %struct.libraw_internal_data_t, ptr %7, i32 0, i32 3
  %9 = getelementptr inbounds nuw %struct.identify_data_t, ptr %8, i32 0, i32 2
  %10 = load i64, ptr %9, align 8, !tbaa !78
  %11 = icmp ne i64 %10, 0
  br i1 %11, label %12, label %108

12:                                               ; preds = %2
  call void @llvm.lifetime.start.p0(i64 2, ptr %5) #8
  %13 = call noundef zeroext i16 @_ZN6LibRaw4get2Ev(ptr noundef nonnull align 8 dereferenceable(767680) %6)
  store i16 %13, ptr %5, align 2, !tbaa !86
  %14 = getelementptr inbounds nuw %class.LibRaw, ptr %6, i32 0, i32 3
  %15 = getelementptr inbounds nuw %struct.libraw_internal_data_t, ptr %14, i32 0, i32 3
  %16 = getelementptr inbounds nuw %struct.identify_data_t, ptr %15, i32 0, i32 2
  %17 = load i64, ptr %16, align 8, !tbaa !78
  %18 = load i8, ptr @.str, align 1, !tbaa !74
  %19 = sext i8 %18 to i64
  %20 = shl i64 %19, 32
  %21 = load i8, ptr getelementptr inbounds ([6 x i8], ptr @.str, i64 0, i64 1), align 1, !tbaa !74
  %22 = sext i8 %21 to i32
  %23 = shl i32 %22, 24
  %24 = sext i32 %23 to i64
  %25 = or i64 %20, %24
  %26 = load i8, ptr getelementptr inbounds ([6 x i8], ptr @.str, i64 0, i64 2), align 1, !tbaa !74
  %27 = sext i8 %26 to i32
  %28 = shl i32 %27, 16
  %29 = sext i32 %28 to i64
  %30 = or i64 %25, %29
  %31 = load i8, ptr getelementptr inbounds ([6 x i8], ptr @.str, i64 0, i64 3), align 1, !tbaa !74
  %32 = sext i8 %31 to i32
  %33 = shl i32 %32, 8
  %34 = sext i32 %33 to i64
  %35 = or i64 %30, %34
  %36 = load i8, ptr getelementptr inbounds ([6 x i8], ptr @.str, i64 0, i64 4), align 1, !tbaa !74
  %37 = sext i8 %36 to i64
  %38 = or i64 %35, %37
  %39 = icmp eq i64 %17, %38
  br i1 %39, label %70, label %40

40:                                               ; preds = %12
  %41 = getelementptr inbounds nuw %class.LibRaw, ptr %6, i32 0, i32 3
  %42 = getelementptr inbounds nuw %struct.libraw_internal_data_t, ptr %41, i32 0, i32 3
  %43 = getelementptr inbounds nuw %struct.identify_data_t, ptr %42, i32 0, i32 2
  %44 = load i64, ptr %43, align 8, !tbaa !78
  %45 = load i8, ptr @.str.12, align 1, !tbaa !74
  %46 = sext i8 %45 to i64
  %47 = shl i64 %46, 32
  %48 = load i8, ptr getelementptr inbounds ([6 x i8], ptr @.str.12, i64 0, i64 1), align 1, !tbaa !74
  %49 = sext i8 %48 to i32
  %50 = shl i32 %49, 24
  %51 = sext i32 %50 to i64
  %52 = or i64 %47, %51
  %53 = load i8, ptr getelementptr inbounds ([6 x i8], ptr @.str.12, i64 0, i64 2), align 1, !tbaa !74
  %54 = sext i8 %53 to i32
  %55 = shl i32 %54, 16
  %56 = sext i32 %55 to i64
  %57 = or i64 %52, %56
  %58 = load i8, ptr getelementptr inbounds ([6 x i8], ptr @.str.12, i64 0, i64 3), align 1, !tbaa !74
  %59 = sext i8 %58 to i32
  %60 = shl i32 %59, 8
  %61 = sext i32 %60 to i64
  %62 = or i64 %57, %61
  %63 = load i8, ptr getelementptr inbounds ([6 x i8], ptr @.str.12, i64 0, i64 4), align 1, !tbaa !74
  %64 = sext i8 %63 to i64
  %65 = or i64 %62, %64
  %66 = icmp eq i64 %44, %65
  br i1 %66, label %70, label %67

67:                                               ; preds = %40
  %68 = load i32, ptr %4, align 4, !tbaa !79
  %69 = icmp ne i32 %68, 1
  br i1 %69, label %70, label %77

70:                                               ; preds = %67, %40, %12
  %71 = load i16, ptr %5, align 2, !tbaa !86
  %72 = sitofp i16 %71 to float
  %73 = getelementptr inbounds nuw %class.LibRaw, ptr %6, i32 0, i32 1
  %74 = getelementptr inbounds nuw %struct.libraw_data_t, ptr %73, i32 0, i32 4
  %75 = getelementptr inbounds nuw %struct.libraw_makernotes_t, ptr %74, i32 0, i32 12
  %76 = getelementptr inbounds nuw %struct.libraw_metadata_common_t, ptr %75, i32 0, i32 3
  store float %72, ptr %76, align 4, !tbaa !87
  br label %107

77:                                               ; preds = %67
  %78 = load i16, ptr %5, align 2, !tbaa !86
  %79 = sext i16 %78 to i32
  %80 = icmp ne i32 %79, -32768
  br i1 %80, label %81, label %106

81:                                               ; preds = %77
  %82 = load i16, ptr %5, align 2, !tbaa !86
  %83 = sext i16 %82 to i32
  %84 = icmp ne i32 %83, 0
  br i1 %84, label %85, label %106

85:                                               ; preds = %81
  %86 = load i16, ptr %5, align 2, !tbaa !86
  %87 = sext i16 %86 to i32
  %88 = icmp sgt i32 %87, 199
  br i1 %88, label %89, label %98

89:                                               ; preds = %85
  %90 = load i16, ptr %5, align 2, !tbaa !86
  %91 = sitofp i16 %90 to float
  %92 = fmul reassoc nsz arcp contract afn float 0x3FBEC74320000000, %91
  %93 = fsub reassoc nsz arcp contract afn float 0x40559E65C0000000, %92
  %94 = getelementptr inbounds nuw %class.LibRaw, ptr %6, i32 0, i32 1
  %95 = getelementptr inbounds nuw %struct.libraw_data_t, ptr %94, i32 0, i32 4
  %96 = getelementptr inbounds nuw %struct.libraw_makernotes_t, ptr %95, i32 0, i32 12
  %97 = getelementptr inbounds nuw %struct.libraw_metadata_common_t, ptr %96, i32 0, i32 3
  store float %93, ptr %97, align 4, !tbaa !87
  br label %105

98:                                               ; preds = %85
  %99 = load i16, ptr %5, align 2, !tbaa !86
  %100 = sitofp i16 %99 to float
  %101 = getelementptr inbounds nuw %class.LibRaw, ptr %6, i32 0, i32 1
  %102 = getelementptr inbounds nuw %struct.libraw_data_t, ptr %101, i32 0, i32 4
  %103 = getelementptr inbounds nuw %struct.libraw_makernotes_t, ptr %102, i32 0, i32 12
  %104 = getelementptr inbounds nuw %struct.libraw_metadata_common_t, ptr %103, i32 0, i32 3
  store float %100, ptr %104, align 4, !tbaa !87
  br label %105

105:                                              ; preds = %98, %89
  br label %106

106:                                              ; preds = %105, %81, %77
  br label %107

107:                                              ; preds = %106, %70
  call void @llvm.lifetime.end.p0(i64 2, ptr %5) #8
  br label %108

108:                                              ; preds = %107, %2
  ret void
}