; Function Attrs: mustprogress uwtable
define void @_ZN6LibRaw28getOlympus_SensorTemperatureEj(ptr noundef nonnull align 8 dereferenceable(767680) %0, i32 noundef %1) local_unnamed_addr #1 align 2 {
  %3 = getelementptr inbounds nuw i8, ptr %0, i64 381528
  %4 = load i64, ptr %3, align 8, !tbaa !74
  %.not = icmp eq i64 %4, 0
  br i1 %.not, label %25, label %5

5:                                                ; preds = %2
  %6 = tail call noundef zeroext i16 @_ZN6LibRaw4get2Ev(ptr noundef nonnull align 8 dereferenceable(767680) %0)
  %7 = load i64, ptr %3, align 8, !tbaa !74
  %8 = icmp eq i64 %7, 292933350448
  br i1 %8, label %12, label %9

9:                                                ; preds = %5
  %10 = icmp eq i64 %7, 357290750774
  %11 = icmp ne i32 %1, 1
  %or.cond = or i1 %11, %10
  br i1 %or.cond, label %12, label %14

12:                                               ; preds = %9, %5
  %13 = sitofp i16 %6 to float
  br label %.sink.split

14:                                               ; preds = %9
  %15 = and i16 %6, 32767
  %or.cond4.not = icmp eq i16 %15, 0
  br i1 %or.cond4.not, label %25, label %16

16:                                               ; preds = %14
  %17 = icmp sgt i16 %6, 199
  br i1 %17, label %18, label %22

18:                                               ; preds = %16
  %19 = uitofp nneg i16 %6 to float
  %20 = fmul reassoc nsz arcp contract afn float %19, 0x3FBEC74320000000
  %21 = fsub reassoc nsz arcp contract afn float 0x40559E65C0000000, %20
  br label %.sink.split

22:                                               ; preds = %16
  %23 = sitofp i16 %6 to float
  br label %.sink.split

.sink.split:                                      ; preds = %22, %18, %12
  %.sink = phi float [ %13, %12 ], [ %21, %18 ], [ %23, %22 ]
  %24 = getelementptr inbounds nuw i8, ptr %0, i64 4708
  store float %.sink, ptr %24, align 4, !tbaa !82
  br label %25

25:                                               ; preds = %.sink.split, %14, %2
  ret void
}